; Function Attrs: mustprogress uwtable
define void @_ZN6google8protobuf28GeneratedCodeInfo_Annotation12InternalSwapEPS1_(ptr noundef nonnull align 8 dereferenceable(72) %this, ptr noalias noundef %other) local_unnamed_addr #3 align 2 {
entry:
  %_internal_metadata_.i = getelementptr inbounds i8, ptr %this, i64 8
  %0 = load i64, ptr %_internal_metadata_.i, align 8
  %_internal_metadata_3 = getelementptr inbounds i8, ptr %other, i64 8
  %1 = load i64, ptr %_internal_metadata_3, align 8
  store i64 %1, ptr %_internal_metadata_.i, align 8
  store i64 %0, ptr %_internal_metadata_3, align 8
  %2 = getelementptr inbounds i8, ptr %this, i64 16
  %3 = getelementptr inbounds i8, ptr %other, i64 16
  %4 = load i32, ptr %2, align 8
  %5 = load i32, ptr %3, align 4
  store i32 %5, ptr %2, align 8
  store i32 %4, ptr %3, align 4
  %path_ = getelementptr inbounds i8, ptr %this, i64 24
  %path_7 = getelementptr inbounds i8, ptr %other, i64 24
  tail call void @_ZN6google8protobuf8internal7memswapILm16EEEvPcS3_(ptr noundef nonnull %path_, ptr noundef nonnull %path_7)
  %source_file_ = getelementptr inbounds i8, ptr %this, i64 48
  %source_file_8 = getelementptr inbounds i8, ptr %other, i64 48
  %__tmp.sroa.0.0.copyload.i = load ptr, ptr %source_file_8, align 8
  %6 = load i64, ptr %source_file_, align 8
  store i64 %6, ptr %source_file_8, align 8
  store ptr %__tmp.sroa.0.0.copyload.i, ptr %source_file_, align 8
  %begin_ = getelementptr inbounds i8, ptr %this, i64 56
  %begin_9 = getelementptr i8, ptr %other, i64 56
  tail call void @llvm.experimental.noalias.scope.decl(metadata !204)
  tail call void @llvm.experimental.noalias.scope.decl(metadata !207)
  br label %for.body.i.i

for.body.i.i:                                     ; preds = %for.body.i.i, %entry
  %__first2.addr.07.i.i = phi ptr [ %incdec.ptr1.i.i, %for.body.i.i ], [ %begin_9, %entry ]
  %__first1.addr.06.i.idx.i = phi i64 [ %__first1.addr.06.i.add.i, %for.body.i.i ], [ 0, %entry ]
  %__first1.addr.06.i.ptr.i = getelementptr inbounds i8, ptr %begin_, i64 %__first1.addr.06.i.idx.i
  %7 = load i8, ptr %__first1.addr.06.i.ptr.i, align 1, !alias.scope !204, !noalias !207
  %8 = load i8, ptr %__first2.addr.07.i.i, align 1, !alias.scope !207, !noalias !204
  store i8 %8, ptr %__first1.addr.06.i.ptr.i, align 1, !alias.scope !204, !noalias !207
  store i8 %7, ptr %__first2.addr.07.i.i, align 1, !alias.scope !207, !noalias !204
  %__first1.addr.06.i.add.i = add nuw nsw i64 %__first1.addr.06.i.idx.i, 1
  %incdec.ptr1.i.i = getelementptr inbounds i8, ptr %__first2.addr.07.i.i, i64 1
  %cmp.not.i.i = icmp eq i64 %__first1.addr.06.i.add.i, 12
  br i1 %cmp.not.i.i, label %_ZN6google8protobuf8internal7memswapILm12EEEvPcS3_.exit, label %for.body.i.i, !llvm.loop !45

_ZN6google8protobuf8internal7memswapILm12EEEvPcS3_.exit: ; preds = %for.body.i.i
  ret void
}